target datalayout = "e-m:e-p270:32:32-p271:32:32-p272:64:64-i64:64-i128:128-f80:128-n8:16:32:64-S128"
target triple = "x86_64-pc-linux-gnu"

%struct.ParseContext_ = type { %struct.TokenData, i32, %union.SourceSpan, %union.SourceSpan, ptr, %struct.Lexer }
%struct.TokenData = type { ptr, i64, %union.anon.86 }
%union.anon.86 = type { %struct.anon.89 }
%struct.anon.89 = type { %struct.Int128_, i8 }
%struct.Int128_ = type { i64, i64 }
%union.SourceSpan = type { i64 }
%struct.Lexer = type { ptr, ptr, ptr, ptr, i32, i32, ptr, ptr, ptr, %struct.TokenData, %union.SourceSpan, i32, i32 }
%struct.Expr_ = type { ptr, %union.SourceSpan, i16, %union.anon.30 }
%union.anon.30 = type { %struct.ExprAnySwitch }
%struct.ExprAnySwitch = type { i8, %union.anon.32 }
%union.anon.32 = type { %struct.anon.33 }
%struct.anon.33 = type { ptr, %union.SourceSpan, ptr }
%struct.Decl_ = type { ptr, ptr, %union.SourceSpan, i64, %union.anon, i32, %union.anon.1, i64, ptr, ptr, ptr, %union.anon.2 }
%union.anon = type { ptr }
%union.anon.1 = type { i16 }
%union.anon.2 = type { %struct.FuncDecl }
%struct.FuncDecl = type { i32, [4 x i8], %struct.Signature_, i32, i32, %union.anon.9 }
%struct.Signature_ = type <{ %struct.CalleeAttributes, i16, i8, i32, i32, [4 x i8], ptr }>
%struct.CalleeAttributes = type { i8 }
%union.anon.9 = type { %struct.anon.10 }
%struct.anon.10 = type { i16, %union.anon.11 }
%union.anon.11 = type { ptr }
%struct.VarDecl_ = type { i32, i32, %union.anon.15, %union.anon.16 }
%union.anon.15 = type { ptr }
%union.anon.16 = type { %struct.anon.17 }
%struct.anon.17 = type { ptr, %union.SourceSpan }

@.str.20 = private unnamed_addr constant [14 x i8] c"Expected '{'.\00", align 1
@poisoned_decl = external global ptr, align 8
@.str.21 = private unnamed_addr constant [14 x i8] c"variable name\00", align 1
@.str.22 = private unnamed_addr constant [35 x i8] c"Expected an identifier before '='.\00", align 1
@.str.83 = private unnamed_addr constant [41 x i8] c"A %s cannot start with a capital letter.\00", align 1
@.str.84 = private unnamed_addr constant [19 x i8] c"A %s was expected.\00", align 1

; Function Attrs: nounwind uwtable
define internal zeroext i1 @expect_ident(ptr noundef %0, ptr noundef %1) #0 {
  %3 = alloca i1, align 1
  %4 = alloca ptr, align 8
  %5 = alloca ptr, align 8
  store ptr %0, ptr %4, align 8
  store ptr %1, ptr %5, align 8
  %6 = load ptr, ptr %4, align 8
  %7 = getelementptr inbounds %struct.ParseContext_, ptr %6, i32 0, i32 1
  %8 = load i32, ptr %7, align 8
  switch i32 %8, label %16 [
    i32 64, label %9
    i32 66, label %10
    i32 65, label %10
  ]

9:                                                ; preds = %2
  store i1 true, ptr %3, align 1
  br label %22

10:                                               ; preds = %2, %2
  %11 = load ptr, ptr %4, align 8
  %12 = getelementptr inbounds %struct.ParseContext_, ptr %11, i32 0, i32 2
  %13 = load ptr, ptr %5, align 8
  %14 = getelementptr inbounds %union.SourceSpan, ptr %12, i32 0, i32 0
  %15 = load i64, ptr %14, align 8
  call void (i64, ptr, ...) @sema_error_at(i64 %15, ptr noundef @.str.83, ptr noundef %13)
  store i1 false, ptr %3, align 1
  br label %22

16:                                               ; preds = %2
  %17 = load ptr, ptr %4, align 8
  %18 = getelementptr inbounds %struct.ParseContext_, ptr %17, i32 0, i32 2
  %19 = load ptr, ptr %5, align 8
  %20 = getelementptr inbounds %union.SourceSpan, ptr %18, i32 0, i32 0
  %21 = load i64, ptr %20, align 8
  call void (i64, ptr, ...) @sema_error_at(i64 %21, ptr noundef @.str.84, ptr noundef %19)
  store i1 false, ptr %3, align 1
  br label %22

22:                                               ; preds = %16, %10, %9
  %23 = load i1, ptr %3, align 1
  ret i1 %23
}

; Function Attrs: nounwind uwtable
define dso_local ptr @parse_local_decl_after_type(ptr noundef %0, ptr noundef %1) #0 {
  %3 = alloca ptr, align 8
  %4 = alloca ptr, align 8
  %5 = alloca ptr, align 8
  %6 = alloca i32, align 4
  %7 = alloca i1, align 1
  %8 = alloca ptr, align 8
  %9 = alloca ptr, align 8
  %10 = alloca ptr, align 8
  %11 = alloca i1, align 1
  %12 = alloca ptr, align 8
  %13 = alloca ptr, align 8
  %14 = alloca ptr, align 8
  %15 = alloca ptr, align 8
  %16 = alloca ptr, align 8
  %17 = alloca ptr, align 8
  %18 = alloca i32, align 4
  %19 = alloca ptr, align 8
  %20 = alloca ptr, align 8
  %21 = alloca ptr, align 8
  %22 = alloca i32, align 4
  %23 = alloca ptr, align 8
  %24 = alloca i32, align 4
  %25 = alloca ptr, align 8
  %26 = alloca i32, align 4
  %27 = alloca ptr, align 8
  %28 = alloca i32, align 4
  %29 = alloca ptr, align 8
  %30 = alloca ptr, align 8
  %31 = alloca ptr, align 8
  %32 = alloca ptr, align 8
  %33 = alloca ptr, align 8
  store ptr %0, ptr %30, align 8
  store ptr %1, ptr %31, align 8
  %34 = load ptr, ptr %30, align 8
  store ptr %34, ptr %23, align 8
  store i32 19, ptr %24, align 4
  %35 = load ptr, ptr %23, align 8
  %36 = getelementptr inbounds %struct.ParseContext_, ptr %35, i32 0, i32 1
  %37 = load i32, ptr %36, align 8
  %38 = load i32, ptr %24, align 4
  %39 = icmp eq i32 %37, %38
  br i1 %39, label %40, label %46

40:                                               ; preds = %2
  %41 = load ptr, ptr %30, align 8
  %42 = getelementptr inbounds %struct.ParseContext_, ptr %41, i32 0, i32 2
  %43 = getelementptr inbounds %union.SourceSpan, ptr %42, i32 0, i32 0
  %44 = load i64, ptr %43, align 8
  call void (i64, ptr, ...) @sema_error_at(i64 %44, ptr noundef @.str.20)
  %45 = load ptr, ptr @poisoned_decl, align 8
  store ptr %45, ptr %29, align 8
  br label %174

46:                                               ; preds = %2
  %47 = load ptr, ptr %30, align 8
  store ptr %47, ptr %25, align 8
  store i32 67, ptr %26, align 4
  %48 = load ptr, ptr %25, align 8
  %49 = getelementptr inbounds %struct.ParseContext_, ptr %48, i32 0, i32 1
  %50 = load i32, ptr %49, align 8
  %51 = load i32, ptr %26, align 4
  %52 = icmp eq i32 %50, %51
  br i1 %52, label %53, label %99

53:                                               ; preds = %46
  %54 = load ptr, ptr %30, align 8
  %55 = load ptr, ptr %31, align 8
  store ptr %54, ptr %16, align 8
  store ptr %55, ptr %17, align 8
  store i32 13, ptr %18, align 4
  %56 = load ptr, ptr %16, align 8
  store ptr %56, ptr %15, align 8
  %57 = load ptr, ptr %15, align 8
  %58 = getelementptr inbounds %struct.TokenData, ptr %57, i32 0, i32 2
  %59 = load ptr, ptr %58, align 8
  %60 = load ptr, ptr %16, align 8
  %61 = getelementptr inbounds %struct.ParseContext_, ptr %60, i32 0, i32 2
  %62 = load ptr, ptr %17, align 8
  %63 = load i32, ptr %18, align 4
  %64 = load i64, ptr %61, align 8
  %65 = call ptr @decl_new_var(ptr noundef %59, i64 %64, ptr noundef %62, i32 noundef %63) #6
  store ptr %65, ptr %32, align 8
  %66 = load ptr, ptr %30, align 8
  call void @advance(ptr noundef %66)
  %67 = load ptr, ptr %30, align 8
  %68 = call zeroext i1 @try_consume(ptr noundef %67, i32 noundef 10)
  br i1 %68, label %69, label %97

69:                                               ; preds = %53
  %70 = load ptr, ptr %30, align 8
  %71 = load ptr, ptr %32, align 8
  store ptr %70, ptr %8, align 8
  store ptr %71, ptr %9, align 8
  %72 = load ptr, ptr %8, align 8
  %73 = call ptr @parse_expr(ptr noundef %72) #6
  store ptr %73, ptr %10, align 8
  %74 = load ptr, ptr %10, align 8
  store ptr %74, ptr %4, align 8
  %75 = load ptr, ptr %4, align 8
  %76 = icmp eq ptr %75, null
  br i1 %76, label %84, label %77

77:                                               ; preds = %69
  %78 = load ptr, ptr %4, align 8
  %79 = getelementptr inbounds %struct.Expr_, ptr %78, i32 0, i32 2
  %80 = load i16, ptr %79, align 8
  %81 = and i16 %80, 255
  %82 = zext i16 %81 to i32
  %83 = icmp ne i32 %82, 0
  br label %84

84:                                               ; preds = %77, %69
  %85 = phi i1 [ true, %69 ], [ %83, %77 ]
  br i1 %85, label %87, label %86

86:                                               ; preds = %84
  store i1 false, ptr %7, align 1
  br label %92

87:                                               ; preds = %84
  %88 = load ptr, ptr %10, align 8
  %89 = load ptr, ptr %9, align 8
  %90 = getelementptr inbounds %struct.Decl_, ptr %89, i32 0, i32 11
  %91 = getelementptr inbounds %struct.VarDecl_, ptr %90, i32 0, i32 2
  store ptr %88, ptr %91, align 8
  store i1 true, ptr %7, align 1
  br label %92

92:                                               ; preds = %87, %86
  %93 = load i1, ptr %7, align 1
  br i1 %93, label %96, label %94

94:                                               ; preds = %92
  %95 = load ptr, ptr @poisoned_decl, align 8
  store ptr %95, ptr %29, align 8
  br label %174

96:                                               ; preds = %92
  br label %97

97:                                               ; preds = %96, %53
  %98 = load ptr, ptr %32, align 8
  store ptr %98, ptr %29, align 8
  br label %174

99:                                               ; preds = %46
  br label %100

100:                                              ; preds = %99
  %101 = load ptr, ptr %30, align 8
  %102 = call zeroext i1 @expect_ident(ptr noundef %101, ptr noundef @.str.21)
  br i1 %102, label %105, label %103

103:                                              ; preds = %100
  %104 = load ptr, ptr @poisoned_decl, align 8
  store ptr %104, ptr %29, align 8
  br label %174

105:                                              ; preds = %100
  br label %106

106:                                              ; preds = %105
  %107 = load ptr, ptr %30, align 8
  %108 = load ptr, ptr %31, align 8
  store ptr %107, ptr %20, align 8
  store ptr %108, ptr %21, align 8
  store i32 2, ptr %22, align 4
  %109 = load ptr, ptr %20, align 8
  store ptr %109, ptr %19, align 8
  %110 = load ptr, ptr %19, align 8
  %111 = getelementptr inbounds %struct.TokenData, ptr %110, i32 0, i32 2
  %112 = load ptr, ptr %111, align 8
  %113 = load ptr, ptr %20, align 8
  %114 = getelementptr inbounds %struct.ParseContext_, ptr %113, i32 0, i32 2
  %115 = load ptr, ptr %21, align 8
  %116 = load i32, ptr %22, align 4
  %117 = load i64, ptr %114, align 8
  %118 = call ptr @decl_new_var(ptr noundef %112, i64 %117, ptr noundef %115, i32 noundef %116) #6
  store ptr %118, ptr %33, align 8
  %119 = load ptr, ptr %30, align 8
  call void @advance(ptr noundef %119)
  %120 = load ptr, ptr %30, align 8
  %121 = load ptr, ptr %33, align 8
  %122 = getelementptr inbounds %struct.Decl_, ptr %121, i32 0, i32 9
  %123 = call zeroext i1 @parse_attributes(ptr noundef %120, ptr noundef %122, ptr noundef null, ptr noundef null, ptr noundef null)
  br i1 %123, label %126, label %124

124:                                              ; preds = %106
  %125 = load ptr, ptr @poisoned_decl, align 8
  store ptr %125, ptr %29, align 8
  br label %174

126:                                              ; preds = %106
  %127 = load ptr, ptr %30, align 8
  store ptr %127, ptr %27, align 8
  store i32 10, ptr %28, align 4
  %128 = load ptr, ptr %27, align 8
  %129 = getelementptr inbounds %struct.ParseContext_, ptr %128, i32 0, i32 1
  %130 = load i32, ptr %129, align 8
  %131 = load i32, ptr %28, align 4
  %132 = icmp eq i32 %130, %131
  br i1 %132, label %133, label %172

133:                                              ; preds = %126
  %134 = load ptr, ptr %33, align 8
  %135 = icmp ne ptr %134, null
  br i1 %135, label %142, label %136

136:                                              ; preds = %133
  %137 = load ptr, ptr %30, align 8
  %138 = getelementptr inbounds %struct.ParseContext_, ptr %137, i32 0, i32 2
  %139 = getelementptr inbounds %union.SourceSpan, ptr %138, i32 0, i32 0
  %140 = load i64, ptr %139, align 8
  call void (i64, ptr, ...) @sema_error_at(i64 %140, ptr noundef @.str.22)
  %141 = load ptr, ptr @poisoned_decl, align 8
  store ptr %141, ptr %29, align 8
  br label %174

142:                                              ; preds = %133
  %143 = load ptr, ptr %30, align 8
  store ptr %143, ptr %5, align 8
  store i32 10, ptr %6, align 4
  %144 = load ptr, ptr %5, align 8
  call void @advance(ptr noundef %144) #6
  %145 = load ptr, ptr %30, align 8
  %146 = load ptr, ptr %33, align 8
  store ptr %145, ptr %12, align 8
  store ptr %146, ptr %13, align 8
  %147 = load ptr, ptr %12, align 8
  %148 = call ptr @parse_expr(ptr noundef %147) #6
  store ptr %148, ptr %14, align 8
  %149 = load ptr, ptr %14, align 8
  store ptr %149, ptr %3, align 8
  %150 = load ptr, ptr %3, align 8
  %151 = icmp eq ptr %150, null
  br i1 %151, label %159, label %152

152:                                              ; preds = %142
  %153 = load ptr, ptr %3, align 8
  %154 = getelementptr inbounds %struct.Expr_, ptr %153, i32 0, i32 2
  %155 = load i16, ptr %154, align 8
  %156 = and i16 %155, 255
  %157 = zext i16 %156 to i32
  %158 = icmp ne i32 %157, 0
  br label %159

159:                                              ; preds = %152, %142
  %160 = phi i1 [ true, %142 ], [ %158, %152 ]
  br i1 %160, label %162, label %161

161:                                              ; preds = %159
  store i1 false, ptr %11, align 1
  br label %167

162:                                              ; preds = %159
  %163 = load ptr, ptr %14, align 8
  %164 = load ptr, ptr %13, align 8
  %165 = getelementptr inbounds %struct.Decl_, ptr %164, i32 0, i32 11
  %166 = getelementptr inbounds %struct.VarDecl_, ptr %165, i32 0, i32 2
  store ptr %163, ptr %166, align 8
  store i1 true, ptr %11, align 1
  br label %167

167:                                              ; preds = %162, %161
  %168 = load i1, ptr %11, align 1
  br i1 %168, label %171, label %169

169:                                              ; preds = %167
  %170 = load ptr, ptr @poisoned_decl, align 8
  store ptr %170, ptr %29, align 8
  br label %174

171:                                              ; preds = %167
  br label %172

172:                                              ; preds = %171, %126
  %173 = load ptr, ptr %33, align 8
  store ptr %173, ptr %29, align 8
  br label %174

174:                                              ; preds = %172, %169, %136, %124, %103, %97, %94, %40
  %175 = load ptr, ptr %29, align 8
  ret ptr %175
}