; Function Attrs: nounwind uwtable
define dso_local ptr @parse_local_decl_after_type(ptr noundef %0, ptr noundef %1) local_unnamed_addr #0 {
  %3 = getelementptr inbounds i8, ptr %0, i64 40
  %4 = load i32, ptr %3, align 8
  switch i32 %4, label %26 [
    i32 19, label %5
    i32 67, label %9
    i32 64, label %31
    i32 66, label %27
    i32 65, label %27
  ]

5:                                                ; preds = %2
  %6 = getelementptr inbounds i8, ptr %0, i64 48
  %7 = load i64, ptr %6, align 8
  tail call void (i64, ptr, ...) @sema_error_at(i64 %7, ptr noundef nonnull @.str.20) #8
  %8 = load ptr, ptr @poisoned_decl, align 8
  br label %58

9:                                                ; preds = %2
  %10 = getelementptr inbounds i8, ptr %0, i64 16
  %11 = load ptr, ptr %10, align 8
  %12 = getelementptr inbounds i8, ptr %0, i64 48
  %13 = load i64, ptr %12, align 8
  %14 = tail call ptr @decl_new_var(ptr noundef %11, i64 %13, ptr noundef %1, i32 noundef 13) #8
  tail call void @advance(ptr noundef nonnull %0) #8
  %15 = tail call zeroext i1 @try_consume(ptr noundef nonnull %0, i32 noundef 10) #8
  br i1 %15, label %16, label %58

16:                                               ; preds = %9
  %17 = tail call ptr @parse_expr(ptr noundef nonnull %0) #8
  %18 = icmp eq ptr %17, null
  br i1 %18, label %.critedge, label %19

19:                                               ; preds = %16
  %20 = getelementptr inbounds i8, ptr %17, i64 16
  %21 = load i16, ptr %20, align 8
  %22 = and i16 %21, 255
  %.not63 = icmp eq i16 %22, 0
  br i1 %.not63, label %24, label %.critedge

.critedge:                                        ; preds = %16, %19
  %23 = getelementptr inbounds i8, ptr %14, i64 88
  store ptr %17, ptr %23, align 8
  br label %58

24:                                               ; preds = %19
  %25 = load ptr, ptr @poisoned_decl, align 8
  br label %58

26:                                               ; preds = %2
  br label %27

27:                                               ; preds = %2, %2, %26
  %.str.84.sink.i = phi ptr [ @.str.84, %26 ], [ @.str.83, %2 ], [ @.str.83, %2 ]
  %28 = getelementptr inbounds i8, ptr %0, i64 48
  %29 = load i64, ptr %28, align 8
  tail call void (i64, ptr, ...) @sema_error_at(i64 %29, ptr noundef nonnull %.str.84.sink.i, ptr noundef nonnull @.str.21) #8
  %30 = load ptr, ptr @poisoned_decl, align 8
  br label %58

31:                                               ; preds = %2
  %32 = getelementptr inbounds i8, ptr %0, i64 16
  %33 = load ptr, ptr %32, align 8
  %34 = getelementptr inbounds i8, ptr %0, i64 48
  %35 = load i64, ptr %34, align 8
  %36 = tail call ptr @decl_new_var(ptr noundef %33, i64 %35, ptr noundef %1, i32 noundef 2) #8
  tail call void @advance(ptr noundef nonnull %0) #8
  %37 = getelementptr inbounds i8, ptr %36, i64 64
  %38 = tail call zeroext i1 @parse_attributes(ptr noundef nonnull %0, ptr noundef nonnull %37, ptr noundef null, ptr noundef null, ptr noundef null)
  br i1 %38, label %41, label %39

39:                                               ; preds = %31
  %40 = load ptr, ptr @poisoned_decl, align 8
  br label %58

41:                                               ; preds = %31
  %42 = load i32, ptr %3, align 8
  %43 = icmp eq i32 %42, 10
  br i1 %43, label %44, label %58

44:                                               ; preds = %41
  %.not = icmp eq ptr %36, null
  br i1 %.not, label %45, label %48

45:                                               ; preds = %44
  %46 = load i64, ptr %34, align 8
  tail call void (i64, ptr, ...) @sema_error_at(i64 %46, ptr noundef nonnull @.str.22) #8
  %47 = load ptr, ptr @poisoned_decl, align 8
  br label %58

48:                                               ; preds = %44
  tail call void @advance(ptr noundef nonnull %0) #8
  %49 = tail call ptr @parse_expr(ptr noundef nonnull %0) #8
  %50 = icmp eq ptr %49, null
  br i1 %50, label %.critedge2, label %51

51:                                               ; preds = %48
  %52 = getelementptr inbounds i8, ptr %49, i64 16
  %53 = load i16, ptr %52, align 8
  %54 = and i16 %53, 255
  %.not62 = icmp eq i16 %54, 0
  br i1 %.not62, label %56, label %.critedge2

.critedge2:                                       ; preds = %48, %51
  %55 = getelementptr inbounds i8, ptr %36, i64 88
  store ptr %49, ptr %55, align 8
  br label %58

56:                                               ; preds = %51
  %57 = load ptr, ptr @poisoned_decl, align 8
  br label %58

58:                                               ; preds = %41, %.critedge2, %9, %.critedge, %56, %45, %39, %27, %24, %5
  %.057 = phi ptr [ %8, %5 ], [ %25, %24 ], [ %57, %56 ], [ %47, %45 ], [ %40, %39 ], [ %30, %27 ], [ %14, %.critedge ], [ %14, %9 ], [ %36, %.critedge2 ], [ %36, %41 ]
  ret ptr %.057
}